; Function Attrs: nounwind uwtable
define noalias nonnull ptr @l_Lean_PersistentHashMap_foldlM___at_Lean_SSet_fold___spec__3___boxed(ptr noundef readnone captures(none) %0, ptr noundef %1, ptr noundef %2, ptr noundef readnone captures(none) %3) local_unnamed_addr #0 {
  tail call void @lean_inc_heartbeat() #3
  %5 = tail call noalias ptr @mi_malloc_small(i64 noundef 24) #3
  %6 = icmp eq ptr %5, null
  br i1 %6, label %7, label %l_Lean_PersistentHashMap_foldlM___at_Lean_SSet_fold___spec__3.exit

7:                                                ; preds = %4
  tail call void @lean_internal_panic_out_of_memory() #4
  unreachable

l_Lean_PersistentHashMap_foldlM___at_Lean_SSet_fold___spec__3.exit: ; preds = %4
  %8 = getelementptr inbounds nuw i8, ptr %5, i64 4
  store i32 1, ptr %5, align 4, !tbaa !4
  store i32 -184549352, ptr %8, align 4
  %9 = getelementptr inbounds nuw i8, ptr %5, i64 8
  store ptr @l_Lean_PersistentHashMap_foldlM___at_Lean_SSet_fold___spec__3___rarg___boxed, ptr %9, align 8, !tbaa !9
  %10 = getelementptr inbounds nuw i8, ptr %5, i64 16
  store i16 3, ptr %10, align 8, !tbaa !11
  %11 = getelementptr inbounds nuw i8, ptr %5, i64 18
  store i16 0, ptr %11, align 2, !tbaa !11
  %12 = ptrtoint ptr %2 to i64
  %13 = and i64 %12, 1
  %.not = icmp eq i64 %13, 0
  br i1 %.not, label %14, label %lean_dec.exit7

14:                                               ; preds = %l_Lean_PersistentHashMap_foldlM___at_Lean_SSet_fold___spec__3.exit
  %15 = load i32, ptr %2, align 4, !tbaa !4
  %16 = icmp sgt i32 %15, 1
  br i1 %16, label %17, label %19, !prof !13

17:                                               ; preds = %14
  %18 = add nsw i32 %15, -1
  store i32 %18, ptr %2, align 4, !tbaa !4
  br label %lean_dec.exit7

19:                                               ; preds = %14
  %.not.i = icmp eq i32 %15, 0
  br i1 %.not.i, label %lean_dec.exit7, label %20

20:                                               ; preds = %19
  tail call void @lean_dec_ref_cold(ptr noundef nonnull %2) #3
  br label %lean_dec.exit7

lean_dec.exit7:                                   ; preds = %20, %19, %17, %l_Lean_PersistentHashMap_foldlM___at_Lean_SSet_fold___spec__3.exit
  %21 = ptrtoint ptr %1 to i64
  %22 = and i64 %21, 1
  %.not10 = icmp eq i64 %22, 0
  br i1 %.not10, label %23, label %lean_dec.exit

23:                                               ; preds = %lean_dec.exit7
  %24 = load i32, ptr %1, align 4, !tbaa !4
  %25 = icmp sgt i32 %24, 1
  br i1 %25, label %26, label %28, !prof !13

26:                                               ; preds = %23
  %27 = add nsw i32 %24, -1
  store i32 %27, ptr %1, align 4, !tbaa !4
  br label %lean_dec.exit

28:                                               ; preds = %23
  %.not.i8 = icmp eq i32 %24, 0
  br i1 %.not.i8, label %lean_dec.exit, label %29

29:                                               ; preds = %28
  tail call void @lean_dec_ref_cold(ptr noundef nonnull %1) #3
  br label %lean_dec.exit

lean_dec.exit:                                    ; preds = %29, %28, %26, %lean_dec.exit7
  ret ptr %5
}